target datalayout = "e-m:e-p270:32:32-p271:32:32-p272:64:64-i64:64-i128:128-f80:128-n8:16:32:64-S128"
target triple = "x86_64-pc-linux-gnu"

%struct.block_iq4_nl = type { i16, [16 x i8] }

@kvalues_iq4nl = internal constant [16 x i8] c"\81\98\AD\BF\CF\DD\EA\F6\01\0D\19&5EYq", align 16
@ggml_table_f32_f16 = external global [65536 x float], align 16

; Function Attrs: inlinehint nounwind uwtable
define internal float @ggml_lookup_fp16_to_fp32(i16 noundef zeroext %0) #3 {
  %2 = alloca i16, align 2
  %3 = alloca i16, align 2
  store i16 %0, ptr %2, align 2, !tbaa !42
  call void @llvm.lifetime.start.p0(i64 2, ptr %3) #10
  call void @llvm.memcpy.p0.p0.i64(ptr align 2 %3, ptr align 2 %2, i64 2, i1 false)
  %4 = load i16, ptr %3, align 2, !tbaa !42
  %5 = zext i16 %4 to i64
  %6 = getelementptr inbounds nuw [65536 x float], ptr @ggml_table_f32_f16, i64 0, i64 %5
  %7 = load float, ptr %6, align 4, !tbaa !13
  call void @llvm.lifetime.end.p0(i64 2, ptr %3) #10
  ret float %7
}

; Function Attrs: nounwind uwtable
define void @dequantize_row_iq4_nl(ptr noalias noundef %0, ptr noalias noundef %1, i64 noundef %2) #0 {
  %4 = alloca ptr, align 8
  %5 = alloca ptr, align 8
  %6 = alloca i64, align 8
  %7 = alloca i64, align 8
  %8 = alloca i32, align 4
  %9 = alloca i32, align 4
  %10 = alloca ptr, align 8
  %11 = alloca float, align 4
  %12 = alloca i32, align 4
  store ptr %0, ptr %4, align 8, !tbaa !8
  store ptr %1, ptr %5, align 8, !tbaa !3
  store i64 %2, ptr %6, align 8, !tbaa !9
  call void @llvm.lifetime.start.p0(i64 8, ptr %7) #10
  %13 = load i64, ptr %6, align 8, !tbaa !9
  %14 = sdiv i64 %13, 32
  store i64 %14, ptr %7, align 8, !tbaa !9
  call void @llvm.lifetime.start.p0(i64 4, ptr %8) #10
  store i32 0, ptr %8, align 4, !tbaa !11
  br label %15

15:                                               ; preds = %86, %3
  %16 = load i32, ptr %8, align 4, !tbaa !11
  %17 = sext i32 %16 to i64
  %18 = load i64, ptr %7, align 8, !tbaa !9
  %19 = icmp slt i64 %17, %18
  br i1 %19, label %21, label %20

20:                                               ; preds = %15
  store i32 2, ptr %9, align 4
  call void @llvm.lifetime.end.p0(i64 4, ptr %8) #10
  br label %89

21:                                               ; preds = %15
  call void @llvm.lifetime.start.p0(i64 8, ptr %10) #10
  %22 = load ptr, ptr %4, align 8, !tbaa !8
  %23 = load i32, ptr %8, align 4, !tbaa !11
  %24 = sext i32 %23 to i64
  %25 = getelementptr inbounds %struct.block_iq4_nl, ptr %22, i64 %24
  %26 = getelementptr inbounds nuw %struct.block_iq4_nl, ptr %25, i32 0, i32 1
  %27 = getelementptr inbounds [16 x i8], ptr %26, i64 0, i64 0
  store ptr %27, ptr %10, align 8, !tbaa !61
  call void @llvm.lifetime.start.p0(i64 4, ptr %11) #10
  %28 = load ptr, ptr %4, align 8, !tbaa !8
  %29 = load i32, ptr %8, align 4, !tbaa !11
  %30 = sext i32 %29 to i64
  %31 = getelementptr inbounds %struct.block_iq4_nl, ptr %28, i64 %30
  %32 = getelementptr inbounds nuw %struct.block_iq4_nl, ptr %31, i32 0, i32 0
  %33 = load i16, ptr %32, align 2, !tbaa !17
  %34 = call float @ggml_lookup_fp16_to_fp32(i16 noundef zeroext %33)
  store float %34, ptr %11, align 4, !tbaa !13
  call void @llvm.lifetime.start.p0(i64 4, ptr %12) #10
  store i32 0, ptr %12, align 4, !tbaa !11
  br label %35

35:                                               ; preds = %78, %21
  %36 = load i32, ptr %12, align 4, !tbaa !11
  %37 = icmp slt i32 %36, 16
  br i1 %37, label %39, label %38

38:                                               ; preds = %35
  store i32 5, ptr %9, align 4
  call void @llvm.lifetime.end.p0(i64 4, ptr %12) #10
  br label %81

39:                                               ; preds = %35
  %40 = load float, ptr %11, align 4, !tbaa !13
  %41 = load ptr, ptr %10, align 8, !tbaa !61
  %42 = load i32, ptr %12, align 4, !tbaa !11
  %43 = sext i32 %42 to i64
  %44 = getelementptr inbounds i8, ptr %41, i64 %43
  %45 = load i8, ptr %44, align 1, !tbaa !20
  %46 = zext i8 %45 to i32
  %47 = and i32 %46, 15
  %48 = sext i32 %47 to i64
  %49 = getelementptr inbounds [16 x i8], ptr @kvalues_iq4nl, i64 0, i64 %48
  %50 = load i8, ptr %49, align 1, !tbaa !20
  %51 = sext i8 %50 to i32
  %52 = sitofp i32 %51 to float
  %53 = fmul float %40, %52
  %54 = load ptr, ptr %5, align 8, !tbaa !3
  %55 = load i32, ptr %12, align 4, !tbaa !11
  %56 = add nsw i32 %55, 0
  %57 = sext i32 %56 to i64
  %58 = getelementptr inbounds float, ptr %54, i64 %57
  store float %53, ptr %58, align 4, !tbaa !13
  %59 = load float, ptr %11, align 4, !tbaa !13
  %60 = load ptr, ptr %10, align 8, !tbaa !61
  %61 = load i32, ptr %12, align 4, !tbaa !11
  %62 = sext i32 %61 to i64
  %63 = getelementptr inbounds i8, ptr %60, i64 %62
  %64 = load i8, ptr %63, align 1, !tbaa !20
  %65 = zext i8 %64 to i32
  %66 = ashr i32 %65, 4
  %67 = sext i32 %66 to i64
  %68 = getelementptr inbounds [16 x i8], ptr @kvalues_iq4nl, i64 0, i64 %67
  %69 = load i8, ptr %68, align 1, !tbaa !20
  %70 = sext i8 %69 to i32
  %71 = sitofp i32 %70 to float
  %72 = fmul float %59, %71
  %73 = load ptr, ptr %5, align 8, !tbaa !3
  %74 = load i32, ptr %12, align 4, !tbaa !11
  %75 = add nsw i32 %74, 16
  %76 = sext i32 %75 to i64
  %77 = getelementptr inbounds float, ptr %73, i64 %76
  store float %72, ptr %77, align 4, !tbaa !13
  br label %78

78:                                               ; preds = %39
  %79 = load i32, ptr %12, align 4, !tbaa !11
  %80 = add nsw i32 %79, 1
  store i32 %80, ptr %12, align 4, !tbaa !11
  br label %35, !llvm.loop !296

81:                                               ; preds = %38
  %82 = load ptr, ptr %5, align 8, !tbaa !3
  %83 = getelementptr inbounds float, ptr %82, i64 32
  store ptr %83, ptr %5, align 8, !tbaa !3
  %84 = load ptr, ptr %10, align 8, !tbaa !61
  %85 = getelementptr inbounds i8, ptr %84, i64 16
  store ptr %85, ptr %10, align 8, !tbaa !61
  call void @llvm.lifetime.end.p0(i64 4, ptr %11) #10
  call void @llvm.lifetime.end.p0(i64 8, ptr %10) #10
  br label %86

86:                                               ; preds = %81
  %87 = load i32, ptr %8, align 4, !tbaa !11
  %88 = add nsw i32 %87, 1
  store i32 %88, ptr %8, align 4, !tbaa !11
  br label %15, !llvm.loop !297

89:                                               ; preds = %20
  call void @llvm.lifetime.end.p0(i64 8, ptr %7) #10
  ret void
}