; Function Attrs: nofree norecurse nosync nounwind memory(read, argmem: readwrite, inaccessiblemem: none) uwtable
define void @dequantize_row_iq4_nl(ptr noalias noundef readonly captures(none) %0, ptr noalias noundef writeonly captures(none) %1, i64 noundef %2) local_unnamed_addr #4 {
  %4 = sdiv i64 %2, 32
  %5 = icmp sgt i64 %2, 31
  br i1 %5, label %.lr.ph, label %._crit_edge

._crit_edge:                                      ; preds = %12, %3
  ret void

.lr.ph:                                           ; preds = %3, %12
  %indvars.iv28 = phi i64 [ %indvars.iv.next29, %12 ], [ 0, %3 ]
  %.02126 = phi ptr [ %13, %12 ], [ %1, %3 ]
  %6 = getelementptr inbounds nuw %struct.block_iq4_nl, ptr %0, i64 %indvars.iv28
  %7 = getelementptr inbounds nuw i8, ptr %6, i64 2
  %8 = load i16, ptr %6, align 2, !tbaa !3
  %9 = zext i16 %8 to i64
  %10 = getelementptr inbounds nuw [65536 x float], ptr @ggml_table_f32_f16, i64 0, i64 %9
  %11 = load float, ptr %10, align 4, !tbaa !8
  br label %14

12:                                               ; preds = %14
  %13 = getelementptr inbounds nuw i8, ptr %.02126, i64 128
  %indvars.iv.next29 = add nuw nsw i64 %indvars.iv28, 1
  %exitcond31.not = icmp eq i64 %indvars.iv.next29, %4
  br i1 %exitcond31.not, label %._crit_edge, label %.lr.ph, !llvm.loop !668

14:                                               ; preds = %.lr.ph, %14
  %indvars.iv = phi i64 [ 0, %.lr.ph ], [ %indvars.iv.next, %14 ]
  %15 = getelementptr inbounds nuw i8, ptr %7, i64 %indvars.iv
  %16 = load i8, ptr %15, align 1, !tbaa !13
  %17 = and i8 %16, 15
  %18 = zext nneg i8 %17 to i64
  %19 = getelementptr inbounds nuw [16 x i8], ptr @kvalues_iq4nl, i64 0, i64 %18
  %20 = load i8, ptr %19, align 1, !tbaa !13
  %21 = sitofp i8 %20 to float
  %22 = fmul float %11, %21
  %23 = getelementptr inbounds nuw float, ptr %.02126, i64 %indvars.iv
  store float %22, ptr %23, align 4, !tbaa !8
  %24 = lshr i8 %16, 4
  %25 = zext nneg i8 %24 to i64
  %26 = getelementptr inbounds nuw [16 x i8], ptr @kvalues_iq4nl, i64 0, i64 %25
  %27 = load i8, ptr %26, align 1, !tbaa !13
  %28 = sitofp i8 %27 to float
  %29 = fmul float %11, %28
  %30 = or disjoint i64 %indvars.iv, 16
  %31 = getelementptr inbounds nuw float, ptr %.02126, i64 %30
  store float %29, ptr %31, align 4, !tbaa !8
  %indvars.iv.next = add nuw nsw i64 %indvars.iv, 1
  %exitcond.not = icmp eq i64 %indvars.iv.next, 16
  br i1 %exitcond.not, label %12, label %14, !llvm.loop !669
}